target datalayout = "e-m:e-p270:32:32-p271:32:32-p272:64:64-i64:64-i128:128-f80:128-n8:16:32:64-S128"
target triple = "x86_64-pc-linux-gnu"

%"class.std::__cxx11::basic_string" = type { %"struct.std::__cxx11::basic_string<char>::_Alloc_hider", i64, %union.anon }
%"struct.std::__cxx11::basic_string<char>::_Alloc_hider" = type { ptr }
%union.anon = type { i64, [8 x i8] }
%class.StatementFilter = type { %class.Filter, ptr }
%class.Filter = type { ptr, %"class.std::bitset" }
%"class.std::bitset" = type { %"struct.std::_Base_bitset" }
%"struct.std::_Base_bitset" = type { i64 }
%class.Function = type { %"class.std::__cxx11::basic_string", %"class.std::vector.21", ptr, %class.Effect, %"class.std::vector.26", %"class.std::vector.26", ptr, ptr, ptr, %"class.std::vector.11", %"class.std::vector.11", i8, i8, i8, i8, i32, %class.Effect, i8, %"class.std::__cxx11::basic_string", i32, %"class.std::vector.11" }
%"class.std::vector.21" = type { %"struct.std::_Vector_base.22" }
%"struct.std::_Vector_base.22" = type { %"struct.std::_Vector_base<Variable *, std::allocator<Variable *>>::_Vector_impl" }
%"struct.std::_Vector_base<Variable *, std::allocator<Variable *>>::_Vector_impl" = type { %"struct.std::_Vector_base<Variable *, std::allocator<Variable *>>::_Vector_impl_data" }
%"struct.std::_Vector_base<Variable *, std::allocator<Variable *>>::_Vector_impl_data" = type { ptr, ptr, ptr }
%"class.std::vector.26" = type { %"struct.std::_Vector_base.27" }
%"struct.std::_Vector_base.27" = type { %"struct.std::_Vector_base<Block *, std::allocator<Block *>>::_Vector_impl" }
%"struct.std::_Vector_base<Block *, std::allocator<Block *>>::_Vector_impl" = type { %"struct.std::_Vector_base<Block *, std::allocator<Block *>>::_Vector_impl_data" }
%"struct.std::_Vector_base<Block *, std::allocator<Block *>>::_Vector_impl_data" = type { ptr, ptr, ptr }
%class.Effect = type <{ %"class.std::vector.11", %"class.std::vector.11", %"class.std::vector.11", i8, i8, [6 x i8] }>
%"class.std::vector.11" = type { %"struct.std::_Vector_base.12" }
%"struct.std::_Vector_base.12" = type { %"struct.std::_Vector_base<const Variable *, std::allocator<const Variable *>>::_Vector_impl" }
%"struct.std::_Vector_base<const Variable *, std::allocator<const Variable *>>::_Vector_impl" = type { %"struct.std::_Vector_base<const Variable *, std::allocator<const Variable *>>::_Vector_impl_data" }
%"struct.std::_Vector_base<const Variable *, std::allocator<const Variable *>>::_Vector_impl_data" = type { ptr, ptr, ptr }
%class.Type = type { i32, ptr, i32, %"class.std::vector.31", %"class.std::vector.36", i32, i8, i8, i8, i8, i8, %"class.std::vector.41", %"class.std::vector.46" }
%"class.std::vector.31" = type { %"struct.std::_Vector_base.32" }
%"struct.std::_Vector_base.32" = type { %"struct.std::_Vector_base<unsigned int, std::allocator<unsigned int>>::_Vector_impl" }
%"struct.std::_Vector_base<unsigned int, std::allocator<unsigned int>>::_Vector_impl" = type { %"struct.std::_Vector_base<unsigned int, std::allocator<unsigned int>>::_Vector_impl_data" }
%"struct.std::_Vector_base<unsigned int, std::allocator<unsigned int>>::_Vector_impl_data" = type { ptr, ptr, ptr }
%"class.std::vector.36" = type { %"struct.std::_Vector_base.37" }
%"struct.std::_Vector_base.37" = type { %"struct.std::_Vector_base<const Type *, std::allocator<const Type *>>::_Vector_impl" }
%"struct.std::_Vector_base<const Type *, std::allocator<const Type *>>::_Vector_impl" = type { %"struct.std::_Vector_base<const Type *, std::allocator<const Type *>>::_Vector_impl_data" }
%"struct.std::_Vector_base<const Type *, std::allocator<const Type *>>::_Vector_impl_data" = type { ptr, ptr, ptr }
%"class.std::vector.41" = type { %"struct.std::_Vector_base.42" }
%"struct.std::_Vector_base.42" = type { %"struct.std::_Vector_base<CVQualifiers, std::allocator<CVQualifiers>>::_Vector_impl" }
%"struct.std::_Vector_base<CVQualifiers, std::allocator<CVQualifiers>>::_Vector_impl" = type { %"struct.std::_Vector_base<CVQualifiers, std::allocator<CVQualifiers>>::_Vector_impl_data" }
%"struct.std::_Vector_base<CVQualifiers, std::allocator<CVQualifiers>>::_Vector_impl_data" = type { ptr, ptr, ptr }
%"class.std::vector.46" = type { %"struct.std::_Vector_base.47" }
%"struct.std::_Vector_base.47" = type { %"struct.std::_Vector_base<int, std::allocator<int>>::_Vector_impl" }
%"struct.std::_Vector_base<int, std::allocator<int>>::_Vector_impl" = type { %"struct.std::_Vector_base<int, std::allocator<int>>::_Vector_impl_data" }
%"struct.std::_Vector_base<int, std::allocator<int>>::_Vector_impl_data" = type { ptr, ptr, ptr }
%class.CGContext = type { ptr, i32, i32, i32, %"class.std::vector.3", ptr, ptr, %"class.std::map", ptr, ptr, ptr, %class.Effect }
%"class.std::vector.3" = type { %"struct.std::_Vector_base.4" }
%"struct.std::_Vector_base.4" = type { %"struct.std::_Vector_base<const Block *, std::allocator<const Block *>>::_Vector_impl" }
%"struct.std::_Vector_base<const Block *, std::allocator<const Block *>>::_Vector_impl" = type { %"struct.std::_Vector_base<const Block *, std::allocator<const Block *>>::_Vector_impl_data" }
%"struct.std::_Vector_base<const Block *, std::allocator<const Block *>>::_Vector_impl_data" = type { ptr, ptr, ptr }
%"class.std::map" = type { %"class.std::_Rb_tree" }
%"class.std::_Rb_tree" = type { %"struct.std::_Rb_tree<const Variable *, std::pair<const Variable *const, unsigned int>, std::_Select1st<std::pair<const Variable *const, unsigned int>>, std::less<const Variable *>>::_Rb_tree_impl" }
%"struct.std::_Rb_tree<const Variable *, std::pair<const Variable *const, unsigned int>, std::_Select1st<std::pair<const Variable *const, unsigned int>>, std::less<const Variable *>>::_Rb_tree_impl" = type { %"struct.std::_Rb_tree_key_compare", %"struct.std::_Rb_tree_header" }
%"struct.std::_Rb_tree_key_compare" = type { %"struct.std::less" }
%"struct.std::less" = type { i8 }
%"struct.std::_Rb_tree_header" = type { %"struct.std::_Rb_tree_node_base", i64 }
%"struct.std::_Rb_tree_node_base" = type { i32, ptr, ptr, ptr }

; Function Attrs: mustprogress nounwind uwtable
define linkonce_odr dso_local noundef zeroext i1 @_ZN9Statement11is_compoundE14eStatementType(i32 noundef %0) #4 comdat align 2 {
  %2 = alloca i32, align 4
  store i32 %0, ptr %2, align 4
  %3 = load i32, ptr %2, align 4
  %4 = icmp eq i32 %3, 1
  br i1 %4, label %14, label %5

5:                                                ; preds = %1
  %6 = load i32, ptr %2, align 4
  %7 = icmp eq i32 %6, 2
  br i1 %7, label %14, label %8

8:                                                ; preds = %5
  %9 = load i32, ptr %2, align 4
  %10 = icmp eq i32 %9, 3
  br i1 %10, label %14, label %11

11:                                               ; preds = %8
  %12 = load i32, ptr %2, align 4
  %13 = icmp eq i32 %12, 9
  br label %14

14:                                               ; preds = %11, %8, %5, %1
  %15 = phi i1 [ true, %8 ], [ true, %5 ], [ true, %1 ], [ %13, %11 ]
  ret i1 %15
}

; Function Attrs: mustprogress nounwind uwtable
define linkonce_odr dso_local noundef ptr @_ZNK9CGContext16get_current_funcEv(ptr noundef nonnull align 8 dereferenceable(216) %0) #4 comdat align 2 {
  %2 = alloca ptr, align 8
  store ptr %0, ptr %2, align 8
  %3 = load ptr, ptr %2, align 8
  %4 = getelementptr inbounds %class.CGContext, ptr %3, i32 0, i32 0
  %5 = load ptr, ptr %4, align 8
  ret ptr %5
}

; Function Attrs: mustprogress uwtable
define dso_local noundef zeroext i1 @_ZNK15StatementFilter6filterEi(ptr noundef nonnull align 8 dereferenceable(24) %0, i32 noundef %1) unnamed_addr #5 align 2 {
  %3 = alloca i1, align 1
  %4 = alloca ptr, align 8
  %5 = alloca i32, align 4
  %6 = alloca i32, align 4
  %7 = alloca ptr, align 8
  %8 = alloca i8, align 1
  store ptr %0, ptr %4, align 8
  store i32 %1, ptr %5, align 4
  %9 = load ptr, ptr %4, align 8
  %10 = call noundef zeroext i1 @_ZNK6Filter12valid_filterEv(ptr noundef nonnull align 8 dereferenceable(16) %9)
  br i1 %10, label %12, label %11

11:                                               ; preds = %2
  store i1 false, ptr %3, align 1
  br label %78

12:                                               ; preds = %2
  %13 = load i32, ptr %5, align 4
  %14 = call noundef i32 @_ZN9Statement14number_to_typeEj(i32 noundef %13)
  store i32 %14, ptr %6, align 4
  %15 = load i32, ptr %6, align 4
  %16 = call noundef zeroext i1 @_ZN15PartialExpander12expand_checkE14eStatementType(i32 noundef %15)
  br i1 %16, label %18, label %17

17:                                               ; preds = %12
  store i1 true, ptr %3, align 1
  br label %78

18:                                               ; preds = %12
  %19 = getelementptr inbounds %class.StatementFilter, ptr %9, i32 0, i32 1
  %20 = load ptr, ptr %19, align 8
  %21 = call noundef ptr @_ZNK9CGContext16get_current_funcEv(ptr noundef nonnull align 8 dereferenceable(216) %20)
  %22 = getelementptr inbounds %class.Function, ptr %21, i32 0, i32 2
  %23 = load ptr, ptr %22, align 8
  store ptr %23, ptr %7, align 8
  %24 = load ptr, ptr %7, align 8
  %25 = getelementptr inbounds %class.Type, ptr %24, i32 0, i32 0
  %26 = load i32, ptr %25, align 8
  %27 = icmp eq i32 %26, 0
  br i1 %27, label %28, label %33

28:                                               ; preds = %18
  %29 = load ptr, ptr %7, align 8
  %30 = getelementptr inbounds %class.Type, ptr %29, i32 0, i32 2
  %31 = load i32, ptr %30, align 8
  %32 = icmp eq i32 %31, 0
  br label %33

33:                                               ; preds = %28, %18
  %34 = phi i1 [ false, %18 ], [ %32, %28 ]
  %35 = zext i1 %34 to i8
  store i8 %35, ptr %8, align 1
  %36 = load i32, ptr %6, align 4
  %37 = icmp eq i32 %36, 1
  br i1 %37, label %38, label %39

38:                                               ; preds = %33
  store i1 true, ptr %3, align 1
  br label %78

39:                                               ; preds = %33
  %40 = load i32, ptr %6, align 4
  %41 = icmp eq i32 %40, 5
  br i1 %41, label %42, label %46

42:                                               ; preds = %39
  %43 = load i8, ptr %8, align 1
  %44 = trunc i8 %43 to i1
  br i1 %44, label %45, label %46

45:                                               ; preds = %42
  store i1 true, ptr %3, align 1
  br label %78

46:                                               ; preds = %42, %39
  %47 = load i32, ptr %6, align 4
  %48 = icmp eq i32 %47, 7
  br i1 %48, label %52, label %49

49:                                               ; preds = %46
  %50 = load i32, ptr %6, align 4
  %51 = icmp eq i32 %50, 6
  br i1 %51, label %52, label %60

52:                                               ; preds = %49, %46
  %53 = getelementptr inbounds %class.StatementFilter, ptr %9, i32 0, i32 1
  %54 = load ptr, ptr %53, align 8
  %55 = getelementptr inbounds %class.CGContext, ptr %54, i32 0, i32 3
  %56 = load i32, ptr %55, align 8
  %57 = and i32 %56, 2
  %58 = icmp ne i32 %57, 0
  br i1 %58, label %60, label %59

59:                                               ; preds = %52
  store i1 true, ptr %3, align 1
  br label %78

60:                                               ; preds = %52, %49
  %61 = getelementptr inbounds %class.StatementFilter, ptr %9, i32 0, i32 1
  %62 = load ptr, ptr %61, align 8
  %63 = getelementptr inbounds %class.CGContext, ptr %62, i32 0, i32 1
  %64 = load i32, ptr %63, align 8
  %65 = call noundef i32 @_ZN9CGOptions13max_blk_depthEv()
  %66 = icmp sge i32 %64, %65
  br i1 %66, label %67, label %70

67:                                               ; preds = %60
  %68 = load i32, ptr %6, align 4
  %69 = call noundef zeroext i1 @_ZN9Statement11is_compoundE14eStatementType(i32 noundef %68)
  store i1 %69, ptr %3, align 1
  br label %78

70:                                               ; preds = %60
  %71 = call noundef zeroext i1 @_ZN8Function23reach_max_functions_cntEv()
  br i1 %71, label %72, label %77

72:                                               ; preds = %70
  %73 = load i32, ptr %6, align 4
  %74 = icmp ne i32 %73, 4
  br i1 %74, label %75, label %76

75:                                               ; preds = %72
  store i1 false, ptr %3, align 1
  br label %78

76:                                               ; preds = %72
  store i1 true, ptr %3, align 1
  br label %78

77:                                               ; preds = %70
  store i1 false, ptr %3, align 1
  br label %78

78:                                               ; preds = %77, %76, %75, %67, %59, %45, %38, %17, %11
  %79 = load i1, ptr %3, align 1
  ret i1 %79
}