; Function Attrs: mustprogress uwtable
define dso_local noundef zeroext i1 @_ZNK15StatementFilter6filterEi(ptr noundef nonnull align 8 dereferenceable(24) %0, i32 noundef %1) unnamed_addr #4 align 2 {
  %3 = tail call noundef zeroext i1 @_ZNK6Filter12valid_filterEv(ptr noundef nonnull align 8 dereferenceable(16) %0)
  br i1 %3, label %4, label %36

4:                                                ; preds = %2
  %5 = tail call noundef i32 @_ZN9Statement14number_to_typeEj(i32 noundef %1)
  %6 = tail call noundef zeroext i1 @_ZN15PartialExpander12expand_checkE14eStatementType(i32 noundef %5)
  br i1 %6, label %7, label %36

7:                                                ; preds = %4
  %8 = getelementptr inbounds i8, ptr %0, i64 16
  %9 = load ptr, ptr %8, align 8
  %10 = load ptr, ptr %9, align 8
  %11 = getelementptr inbounds i8, ptr %10, i64 56
  %12 = load ptr, ptr %11, align 8
  %13 = load i32, ptr %12, align 8
  %14 = icmp eq i32 %13, 0
  br i1 %14, label %15, label %19

15:                                               ; preds = %7
  %16 = getelementptr inbounds i8, ptr %12, i64 16
  %17 = load i32, ptr %16, align 8
  %18 = icmp eq i32 %17, 0
  br label %19

19:                                               ; preds = %15, %7
  %20 = phi i1 [ false, %7 ], [ %18, %15 ]
  switch i32 %5, label %22 [
    i32 1, label %36
    i32 5, label %21
  ]

21:                                               ; preds = %19
  br i1 %20, label %36, label %.thread

22:                                               ; preds = %19
  %23 = and i32 %5, -2
  %or.cond = icmp eq i32 %23, 6
  br i1 %or.cond, label %24, label %.thread

24:                                               ; preds = %22
  %25 = getelementptr inbounds i8, ptr %9, i64 16
  %26 = load i32, ptr %25, align 8
  %27 = and i32 %26, 2
  %.not = icmp eq i32 %27, 0
  br i1 %.not, label %36, label %.thread

.thread:                                          ; preds = %21, %22, %24
  %28 = getelementptr inbounds i8, ptr %9, i64 8
  %29 = load i32, ptr %28, align 8
  %30 = tail call noundef i32 @_ZN9CGOptions13max_blk_depthEv()
  %.not14 = icmp slt i32 %29, %30
  br i1 %.not14, label %34, label %31

31:                                               ; preds = %.thread
  %32 = add i32 %5, -1
  %or.cond3.i = icmp ult i32 %32, 3
  %33 = icmp eq i32 %5, 9
  %spec.select.i = or i1 %33, %or.cond3.i
  br label %36

34:                                               ; preds = %.thread
  %35 = tail call noundef zeroext i1 @_ZN8Function23reach_max_functions_cntEv()
  %.not15 = icmp eq i32 %5, 4
  %spec.select = and i1 %.not15, %35
  br label %36

36:                                               ; preds = %34, %24, %21, %19, %4, %2, %31
  %.0 = phi i1 [ %spec.select.i, %31 ], [ false, %2 ], [ true, %4 ], [ true, %19 ], [ true, %21 ], [ true, %24 ], [ %spec.select, %34 ]
  ret i1 %.0
}